target datalayout = "e-m:e-p270:32:32-p271:32:32-p272:64:64-i64:64-i128:128-f80:128-n8:16:32:64-S128"
target triple = "x86_64-pc-linux-gnu"

@.str.2 = private unnamed_addr constant [9 x i8] c"Reserved\00", align 1
@hf_bssgp_flush_action = internal global i32 0, align 4
@.str.436 = private unnamed_addr constant [6 x i8] c" - %s\00", align 1
@bssgp_flush_action_vals = internal constant [3 x { i32, [4 x i8], ptr }] [{ i32, [4 x i8], ptr } { i32 0, [4 x i8] zeroinitializer, ptr @.str.547 }, { i32, [4 x i8], ptr } { i32 1, [4 x i8] zeroinitializer, ptr @.str.548 }, { i32, [4 x i8], ptr } zeroinitializer], align 16

; Function Attrs: null_pointer_is_valid sspstrong uwtable
define internal zeroext i16 @de_bssgp_flush_action(ptr noundef %0, ptr noundef %1, ptr noundef %2, i32 noundef %3, i32 noundef %4, ptr noundef %5, i32 noundef %6) #1 {
  %8 = alloca ptr, align 8
  %9 = alloca ptr, align 8
  %10 = alloca ptr, align 8
  %11 = alloca i32, align 4
  %12 = alloca i32, align 4
  %13 = alloca ptr, align 8
  %14 = alloca i32, align 4
  %15 = alloca i32, align 4
  %16 = alloca i8, align 1
  store ptr %0, ptr %8, align 8
  store ptr %1, ptr %9, align 8
  store ptr %2, ptr %10, align 8
  store i32 %3, ptr %11, align 4
  store i32 %4, ptr %12, align 4
  store ptr %5, ptr %13, align 8
  store i32 %6, ptr %14, align 4
  call void @llvm.lifetime.start.p0(i64 4, ptr %15) #4
  call void @llvm.lifetime.start.p0(i64 1, ptr %16) #4
  %17 = load i32, ptr %11, align 4
  store i32 %17, ptr %15, align 4
  %18 = load ptr, ptr %8, align 8
  %19 = load i32, ptr %15, align 4
  %20 = call zeroext i8 @tvb_get_uint8(ptr noundef %18, i32 noundef %19)
  store i8 %20, ptr %16, align 1
  %21 = load ptr, ptr %9, align 8
  %22 = load i32, ptr @hf_bssgp_flush_action, align 4
  %23 = load ptr, ptr %8, align 8
  %24 = load i32, ptr %15, align 4
  %25 = call ptr @proto_tree_add_item(ptr noundef %21, i32 noundef %22, ptr noundef %23, i32 noundef %24, i32 noundef 1, i32 noundef 0)
  %26 = load i32, ptr %15, align 4
  %27 = add i32 %26, 1
  store i32 %27, ptr %15, align 4
  %28 = load ptr, ptr %13, align 8
  %29 = icmp ne ptr %28, null
  br i1 %29, label %30, label %40

30:                                               ; preds = %7
  %31 = load ptr, ptr %13, align 8
  %32 = load i32, ptr %14, align 4
  %33 = sext i32 %32 to i64
  %34 = load ptr, ptr %13, align 8
  %35 = call i64 @llvm.objectsize.i64.p0(ptr %34, i1 false, i1 true, i1 true)
  %36 = load i8, ptr %16, align 1
  %37 = zext i8 %36 to i32
  %38 = call ptr @val_to_str_const(i32 noundef %37, ptr noundef @bssgp_flush_action_vals, ptr noundef @.str.2)
  %39 = call i32 (ptr, i64, i32, i64, ptr, ...) @__snprintf_chk(ptr noundef %31, i64 noundef %33, i32 noundef 2, i64 noundef %35, ptr noundef @.str.436, ptr noundef %38)
  br label %40

40:                                               ; preds = %30, %7
  %41 = load i32, ptr %15, align 4
  %42 = load i32, ptr %11, align 4
  %43 = sub i32 %41, %42
  %44 = trunc i32 %43 to i16
  call void @llvm.lifetime.end.p0(i64 1, ptr %16) #4
  call void @llvm.lifetime.end.p0(i64 4, ptr %15) #4
  ret i16 %44
}